#include <math.h>
#include <stdio.h>
#include <stdlib.h>
#include <string.h>

main()
{
  int i;
  int a[5]={5,2,1,3,4};
  for(i=0;i<4;i++)
  {
    printf("%d ",a[i]);
  }
  printf("%d",a[i]);
}